Certificate:
    Data:
        Version: 3 (0x2)
        Serial Number: 1 (0x1)
    Signature Algorithm: sha256WithRSAEncryption
        Issuer: C=US, ST=CO, L=Louisville, CN=Medical Device/emailAddress=grandma@cablelabs.com, O=Cablelabs, OU=Micronets
        Validity
            Not Before: May  4 16:45:46 2018 GMT
            Not After : Jul  3 16:45:46 2018 GMT
        Subject: C=US, ST=CO, O=Cablelabs, OU=Micronets, CN=10.142.10.164/emailAddress=micronets@cablelabs.com
        Subject Public Key Info:
            Public Key Algorithm: rsaEncryption
                Public-Key: (2048 bit)
                Modulus:
                    00:dc:de:9d:f1:33:51:88:d2:82:e2:30:ff:0d:27:
                    55:a0:1e:92:56:6e:d6:93:72:bd:20:57:ca:7b:6f:
                    1c:b2:02:c0:06:dc:09:cf:0a:ff:cc:c2:e3:7c:31:
                    95:9c:1f:53:00:2f:f0:a0:18:8e:2a:18:df:32:ef:
                    28:75:a2:df:72:12:5c:32:14:f1:db:1a:b9:df:38:
                    93:22:ca:24:52:e7:55:97:45:f6:71:54:ac:76:65:
                    57:dd:e6:cc:ad:7a:3c:3f:55:96:6c:b2:fc:9c:3c:
                    9b:74:37:fa:c8:aa:2e:4c:5e:f3:fe:86:c5:b2:b0:
                    67:b7:f3:b4:c7:ce:4d:24:8f:50:f9:8e:cd:de:1e:
                    44:9f:8c:e2:57:71:a4:2f:a0:1f:29:76:ed:3b:78:
                    74:cc:b4:ec:76:8c:b7:f7:8f:80:7f:11:1d:16:65:
                    32:17:ee:c9:f9:b4:95:ed:e9:9b:89:2e:1c:62:03:
                    ac:ab:84:73:e3:a9:ef:cd:03:e3:db:e8:99:6c:29:
                    b6:13:e5:77:8f:2a:3d:50:b9:9b:38:d9:73:f3:b2:
                    80:90:e6:d2:c9:84:6d:b0:1d:43:a9:09:e6:5e:32:
                    95:a5:ec:88:bf:c5:38:89:56:89:01:86:92:78:4b:
                    66:f3:fc:bb:48:bf:6f:b7:3f:9e:9c:3a:33:f8:6e:
                    e7:b5
                Exponent: 65537 (0x10001)
        X509v3 extensions:
            X509v3 Extended Key Usage: 
                TLS Web Server Authentication
            X509v3 CRL Distribution Points: 

                Full Name:
                  URI:http://www.example.com/example_ca.crl

    Signature Algorithm: sha256WithRSAEncryption
         b6:0b:77:e4:93:46:90:7c:cb:6e:6d:26:0d:bb:b1:7d:ac:a1:
         90:9a:d1:13:dd:df:2c:cb:b0:d7:37:a3:d7:68:ec:0a:4e:b1:
         ad:65:9a:ce:52:34:11:79:17:22:f7:d1:be:30:b5:5d:36:30:
         75:ff:fe:fd:3d:9b:d1:7c:21:45:4e:9c:4c:5b:c3:db:ac:fe:
         f6:a8:18:5c:4a:8f:30:5c:f9:07:23:82:77:2d:28:05:75:03:
         cb:07:99:cf:34:1b:6b:87:a1:a0:ab:87:73:b0:a0:75:11:2a:
         3b:b1:bf:9d:93:5d:1f:c2:d2:35:a2:23:18:07:8f:8e:ca:8b:
         b6:74:78:1b:b0:aa:8b:c1:6f:37:6d:20:e6:40:b8:cf:29:6d:
         db:2a:6f:ad:60:6c:7d:35:63:c6:db:8b:87:13:7c:33:6d:ed:
         31:3c:be:68:a2:3f:5f:c5:3a:26:78:c5:47:28:fc:64:f2:41:
         d1:ed:31:21:d8:a7:c3:c7:07:7e:ca:95:8d:02:c5:12:d7:df:
         fa:d6:c2:ed:e9:ae:60:4b:69:4f:87:41:07:07:42:4f:96:ba:
         4b:bc:23:6c:11:68:6d:0c:1a:ad:45:b3:2b:c4:5f:79:17:2f:
         3a:6e:ac:a4:2b:2a:be:19:df:f3:d8:d1:94:b8:59:5d:b4:68:
         db:22:fb:fa
-----BEGIN CERTIFICATE-----
MIID5DCCAsygAwIBAgIBATANBgkqhkiG9w0BAQsFADCBljELMAkGA1UEBhMCVVMx
CzAJBgNVBAgMAkNPMRMwEQYDVQQHDApMb3Vpc3ZpbGxlMRcwFQYDVQQDDA5NZWRp
Y2FsIERldmljZTEkMCIGCSqGSIb3DQEJARYVZ3JhbmRtYUBjYWJsZWxhYnMuY29t
MRIwEAYDVQQKDAlDYWJsZWxhYnMxEjAQBgNVBAsMCU1pY3JvbmV0czAeFw0xODA1
MDQxNjQ1NDZaFw0xODA3MDMxNjQ1NDZaMIGCMQswCQYDVQQGEwJVUzELMAkGA1UE
CAwCQ08xEjAQBgNVBAoMCUNhYmxlbGFiczESMBAGA1UECwwJTWljcm9uZXRzMRYw
FAYDVQQDDA0xMC4xNDIuMTAuMTY0MSYwJAYJKoZIhvcNAQkBFhdtaWNyb25ldHNA
Y2FibGVsYWJzLmNvbTCCASIwDQYJKoZIhvcNAQEBBQADggEPADCCAQoCggEBANze
nfEzUYjSguIw/w0nVaAeklZu1pNyvSBXyntvHLICwAbcCc8K/8zC43wxlZwfUwAv
8KAYjioY3zLvKHWi33ISXDIU8dsaud84kyLKJFLnVZdF9nFUrHZlV93mzK16PD9V
lmyy/Jw8m3Q3+siqLkxe8/6GxbKwZ7fztMfOTSSPUPmOzd4eRJ+M4ldxpC+gHyl2
7Tt4dMy07HaMt/ePgH8RHRZlMhfuyfm0le3pm4kuHGIDrKuEc+Op780D49vomWwp
thPld48qPVC5mzjZc/OygJDm0smEbbAdQ6kJ5l4ylaXsiL/FOIlWiQGGknhLZvP8
u0i/b7c/npw6M/hu57UCAwEAAaNPME0wEwYDVR0lBAwwCgYIKwYBBQUHAwEwNgYD
VR0fBC8wLTAroCmgJ4YlaHR0cDovL3d3dy5leGFtcGxlLmNvbS9leGFtcGxlX2Nh
LmNybDANBgkqhkiG9w0BAQsFAAOCAQEAtgt35JNGkHzLbm0mDbuxfayhkJrRE93f
LMuw1zej12jsCk6xrWWazlI0EXkXIvfRvjC1XTYwdf/+/T2b0XwhRU6cTFvD26z+
9qgYXEqPMFz5ByOCdy0oBXUDyweZzzQba4ehoKuHc7CgdREqO7G/nZNdH8LSNaIj
GAePjsqLtnR4G7Cqi8FvN20g5kC4zylt2ypvrWBsfTVjxtuLhxN8M23tMTy+aKI/
X8U6JnjFRyj8ZPJB0e0xIdinw8cHfsqVjQLFEtff+tbC7emuYEtpT4dBBwdCT5a6
S7wjbBFobQwarUWzK8RfeRcvOm6spCsqvhnf89jRlLhZXbRo2yL7+g==
-----END CERTIFICATE-----
