Certificate:
    Data:
        Version: 3 (0x2)
        Serial Number: 1 (0x1)
    Signature Algorithm: sha256WithRSAEncryption
        Issuer: C=FR, ST=Radius, L=Somewhere, O=Example Inc./emailAddress=admin@example.org, CN=Example Certificate Authority
        Validity
            Not Before: May  3 03:19:53 2018 GMT
            Not After : Jul  2 03:19:53 2018 GMT
        Subject: C=FR, ST=Radius, O=Example Inc., CN=Example Server Certificate/emailAddress=admin@example.org
        Subject Public Key Info:
            Public Key Algorithm: rsaEncryption
                Public-Key: (2048 bit)
                Modulus:
                    00:d3:1b:b3:91:73:b3:98:8c:f1:bf:80:0b:00:b3:
                    dc:03:cf:48:02:38:09:50:ef:e5:32:03:0f:78:d3:
                    18:02:a5:03:78:98:0a:8a:3a:e9:51:5b:81:b1:ca:
                    10:f2:04:e0:86:e5:a9:a8:c7:14:4c:7a:2d:93:c1:
                    2a:41:db:c4:86:0b:37:02:18:cc:cc:6d:41:2c:03:
                    52:58:95:26:c1:b1:b8:be:58:4a:70:a5:ef:28:0d:
                    99:ef:c2:48:e3:76:ce:89:cf:3e:d0:22:a2:cd:2e:
                    6c:bd:ef:a8:f0:c2:98:42:73:df:da:5d:df:76:20:
                    01:ce:a7:d9:de:f1:1b:16:6d:9a:62:97:d8:15:80:
                    25:26:64:d3:d8:9b:6b:ea:20:e4:f0:60:16:f3:6f:
                    cb:a4:54:27:2d:7a:4a:72:d4:cc:b0:a6:db:15:3e:
                    40:28:2b:61:de:8a:6e:4a:43:5e:ec:56:d2:fb:98:
                    a9:28:99:9e:e0:c7:48:2a:9d:33:30:3d:a5:08:08:
                    8e:90:71:cb:ab:f9:03:4a:41:f5:76:92:39:1b:ab:
                    fb:2a:d2:79:3c:78:2c:b1:c7:ca:7b:78:6e:da:d9:
                    3b:e0:57:e2:46:2a:96:c4:12:41:03:93:52:ae:75:
                    e4:f1:10:55:1c:03:69:af:27:45:e8:62:48:07:eb:
                    fb:db
                Exponent: 65537 (0x10001)
        X509v3 extensions:
            X509v3 Extended Key Usage: 
                TLS Web Server Authentication
            X509v3 CRL Distribution Points: 

                Full Name:
                  URI:http://www.example.com/example_ca.crl

    Signature Algorithm: sha256WithRSAEncryption
         4f:cc:96:6c:07:f3:a2:dd:03:09:e8:e2:97:c7:af:10:64:03:
         90:8b:e3:8f:c9:c3:10:8d:a1:9c:64:6a:77:b0:01:32:7a:23:
         28:aa:5e:1d:96:23:37:c0:9d:e8:c8:0b:fc:f3:51:60:0b:f4:
         66:b3:40:24:66:c1:5b:19:63:4c:91:e0:86:ab:78:ef:28:ef:
         d0:bd:c6:20:d8:d4:36:93:af:ba:a4:32:75:c9:2d:8f:16:e2:
         7a:b1:57:99:ee:7f:e8:66:db:34:d0:37:fb:bb:e6:71:04:4f:
         12:61:c4:7a:01:3d:5d:fb:fb:fd:04:2c:da:0e:4d:66:01:f9:
         4d:56:b2:22:38:68:a5:fc:f8:ac:96:de:fc:e5:8d:65:f6:ac:
         c4:00:93:05:5e:09:9f:be:35:1f:c0:d2:9b:a9:69:19:af:08:
         96:bb:66:66:6e:c6:88:6f:d8:5c:3a:ab:b3:f3:48:04:1b:34:
         58:9d:4d:91:a7:5c:d2:81:e3:35:e6:83:45:6a:3d:34:fd:7b:
         8b:5e:b5:08:a1:92:88:96:9b:52:40:3f:e3:a2:c6:89:3b:6f:
         7b:53:05:a1:54:6d:23:da:3e:6b:40:9b:47:15:cd:c7:30:7b:
         6d:43:02:91:5c:f1:a9:9c:e1:80:85:15:4b:50:58:14:41:eb:
         29:e8:ec:17
-----BEGIN CERTIFICATE-----
MIID2jCCAsKgAwIBAgIBATANBgkqhkiG9w0BAQsFADCBkzELMAkGA1UEBhMCRlIx
DzANBgNVBAgMBlJhZGl1czESMBAGA1UEBwwJU29tZXdoZXJlMRUwEwYDVQQKDAxF
eGFtcGxlIEluYy4xIDAeBgkqhkiG9w0BCQEWEWFkbWluQGV4YW1wbGUub3JnMSYw
JAYDVQQDDB1FeGFtcGxlIENlcnRpZmljYXRlIEF1dGhvcml0eTAeFw0xODA1MDMw
MzE5NTNaFw0xODA3MDIwMzE5NTNaMHwxCzAJBgNVBAYTAkZSMQ8wDQYDVQQIDAZS
YWRpdXMxFTATBgNVBAoMDEV4YW1wbGUgSW5jLjEjMCEGA1UEAwwaRXhhbXBsZSBT
ZXJ2ZXIgQ2VydGlmaWNhdGUxIDAeBgkqhkiG9w0BCQEWEWFkbWluQGV4YW1wbGUu
b3JnMIIBIjANBgkqhkiG9w0BAQEFAAOCAQ8AMIIBCgKCAQEA0xuzkXOzmIzxv4AL
ALPcA89IAjgJUO/lMgMPeNMYAqUDeJgKijrpUVuBscoQ8gTghuWpqMcUTHotk8Eq
QdvEhgs3AhjMzG1BLANSWJUmwbG4vlhKcKXvKA2Z78JI43bOic8+0CKizS5sve+o
8MKYQnPf2l3fdiABzqfZ3vEbFm2aYpfYFYAlJmTT2Jtr6iDk8GAW82/LpFQnLXpK
ctTMsKbbFT5AKCth3opuSkNe7FbS+5ipKJme4MdIKp0zMD2lCAiOkHHLq/kDSkH1
dpI5G6v7KtJ5PHgsscfKe3hu2tk74FfiRiqWxBJBA5NSrnXk8RBVHANprydF6GJI
B+v72wIDAQABo08wTTATBgNVHSUEDDAKBggrBgEFBQcDATA2BgNVHR8ELzAtMCug
KaAnhiVodHRwOi8vd3d3LmV4YW1wbGUuY29tL2V4YW1wbGVfY2EuY3JsMA0GCSqG
SIb3DQEBCwUAA4IBAQBPzJZsB/Oi3QMJ6OKXx68QZAOQi+OPycMQjaGcZGp3sAEy
eiMoql4dliM3wJ3oyAv881FgC/Rms0AkZsFbGWNMkeCGq3jvKO/QvcYg2NQ2k6+6
pDJ1yS2PFuJ6sVeZ7n/oZts00Df7u+ZxBE8SYcR6AT1d+/v9BCzaDk1mAflNVrIi
OGil/Pislt785Y1l9qzEAJMFXgmfvjUfwNKbqWkZrwiWu2ZmbsaIb9hcOquz80gE
GzRYnU2Rp1zSgeM15oNFaj00/XuLXrUIoZKIlptSQD/josaJO297UwWhVG0j2j5r
QJtHFc3HMHttQwKRXPGpnOGAhRVLUFgUQesp6OwX
-----END CERTIFICATE-----
